; Function Attrs: mustprogress nounwind uwtable
define internal void @_ZN12_GLOBAL__N_117AArch64PassConfig14addPreEmitPassEv(ptr noundef nonnull align 8 dereferenceable(134) %0) unnamed_addr #0 align 2 {
  %2 = getelementptr inbounds nuw i8, ptr %0, i64 112
  %3 = load ptr, ptr %2, align 8
  %4 = getelementptr inbounds nuw i8, ptr %3, i64 664
  %5 = load i32, ptr %4, align 8
  %6 = icmp sgt i32 %5, 2
  br i1 %6, label %7, label %.thread3

7:                                                ; preds = %1
  %8 = load i8, ptr getelementptr inbounds (i8, ptr @_ZL18EnableLoadStoreOpt, i64 128), align 8
  %9 = trunc i8 %8 to i1
  br i1 %9, label %10, label %.thread

10:                                               ; preds = %7
  %11 = tail call noundef ptr @_ZN4llvm38createAArch64LoadStoreOptimizationPassEv() #21
  tail call void @_ZN4llvm16TargetPassConfig7addPassEPNS_4PassE(ptr noundef nonnull align 8 dereferenceable(134) %0, ptr noundef %11) #21
  %.pre = load ptr, ptr %2, align 8
  %.phi.trans.insert = getelementptr inbounds nuw i8, ptr %.pre, i64 664
  %.pre1 = load i32, ptr %.phi.trans.insert, align 8
  %12 = icmp sgt i32 %.pre1, 2
  br i1 %12, label %.thread, label %.thread3

.thread:                                          ; preds = %7, %10
  %13 = load i8, ptr getelementptr inbounds (i8, ptr @_ZL28EnableAArch64CopyPropagation, i64 128), align 8
  %14 = trunc i8 %13 to i1
  br i1 %14, label %15, label %.thread3

15:                                               ; preds = %.thread
  %16 = tail call noundef ptr @_ZN4llvm32createMachineCopyPropagationPassEb(i1 noundef zeroext true) #21
  tail call void @_ZN4llvm16TargetPassConfig7addPassEPNS_4PassE(ptr noundef nonnull align 8 dereferenceable(134) %0, ptr noundef %16) #21
  br label %.thread3

.thread3:                                         ; preds = %1, %15, %.thread, %10
  %17 = tail call noundef ptr @_ZN4llvm25createAArch64A53Fix835769Ev() #21
  tail call void @_ZN4llvm16TargetPassConfig7addPassEPNS_4PassE(ptr noundef nonnull align 8 dereferenceable(134) %0, ptr noundef %17) #21
  %18 = load ptr, ptr %2, align 8
  %19 = getelementptr inbounds i8, ptr %18, i64 572
  %20 = load i32, ptr %19, align 4
  %21 = icmp eq i32 %20, 14
  br i1 %21, label %22, label %25

22:                                               ; preds = %.thread3
  %23 = tail call noundef ptr @_ZN4llvm24createCFGuardLongjmpPassEv() #21
  tail call void @_ZN4llvm16TargetPassConfig7addPassEPNS_4PassE(ptr noundef nonnull align 8 dereferenceable(134) %0, ptr noundef %23) #21
  %24 = tail call noundef ptr @_ZN4llvm29createEHContGuardCatchretPassEv() #21
  tail call void @_ZN4llvm16TargetPassConfig7addPassEPNS_4PassE(ptr noundef nonnull align 8 dereferenceable(134) %0, ptr noundef %24) #21
  %.pre2 = load ptr, ptr %2, align 8
  br label %25

25:                                               ; preds = %22, %.thread3
  %26 = phi ptr [ %.pre2, %22 ], [ %18, %.thread3 ]
  %27 = getelementptr inbounds nuw i8, ptr %26, i64 664
  %28 = load i32, ptr %27, align 8
  %.not = icmp eq i32 %28, 0
  br i1 %.not, label %38, label %29

29:                                               ; preds = %25
  %30 = load i8, ptr getelementptr inbounds (i8, ptr @_ZL16EnableCollectLOH, i64 128), align 8
  %31 = trunc i8 %30 to i1
  br i1 %31, label %32, label %38

32:                                               ; preds = %29
  %33 = getelementptr inbounds i8, ptr %26, i64 580
  %34 = load i32, ptr %33, align 4
  %35 = icmp eq i32 %34, 5
  br i1 %35, label %36, label %38

36:                                               ; preds = %32
  %37 = tail call noundef ptr @_ZN4llvm27createAArch64CollectLOHPassEv() #21
  tail call void @_ZN4llvm16TargetPassConfig7addPassEPNS_4PassE(ptr noundef nonnull align 8 dereferenceable(134) %0, ptr noundef %37) #21
  br label %38

38:                                               ; preds = %36, %32, %29, %25
  ret void
}